; Function Attrs: mustprogress uwtable
define noundef nonnull ptr @rocksdb_options_create() local_unnamed_addr #0 personality ptr @__gxx_personality_v0 {
  %1 = tail call noalias noundef nonnull dereferenceable(1544) ptr @_Znwm(i64 noundef 1544) #46
  invoke void @_ZN7rocksdb9DBOptionsC2Ev(ptr noundef nonnull align 8 dereferenceable(1544) %1)
          to label %.noexc unwind label %5

.noexc:                                           ; preds = %0
  %2 = getelementptr inbounds nuw i8, ptr %1, i64 712
  invoke void @_ZN7rocksdb19ColumnFamilyOptionsC2Ev(ptr noundef nonnull align 8 dereferenceable(832) %2)
          to label %_ZN17rocksdb_options_tC2Ev.exit unwind label %3

3:                                                ; preds = %.noexc
  %4 = landingpad { ptr, i32 }
          cleanup
  tail call void @_ZN7rocksdb9DBOptionsD2Ev(ptr noundef nonnull align 8 dereferenceable(1544) %1) #43
  br label %.body

_ZN17rocksdb_options_tC2Ev.exit:                  ; preds = %.noexc
  ret ptr %1

5:                                                ; preds = %0
  %6 = landingpad { ptr, i32 }
          cleanup
  br label %.body

.body:                                            ; preds = %3, %5
  %eh.lpad-body = phi { ptr, i32 } [ %6, %5 ], [ %4, %3 ]
  tail call void @_ZdlPvm(ptr noundef nonnull %1, i64 noundef 1544) #45
  resume { ptr, i32 } %eh.lpad-body
}